target datalayout = "e-m:e-p270:32:32-p271:32:32-p272:64:64-i64:64-i128:128-f80:128-n8:16:32:64-S128"
target triple = "x86_64-pc-linux-gnu"

%struct.VLC = type { i32, ptr, i32, i32 }
%struct.VLCElem = type { %union.anon.1 }
%union.anon.1 = type { %struct.anon }
%struct.anon = type { i16, i16 }
%struct.GetBitContext = type { ptr, ptr, i32, i32, i32 }

@.str.24 = private unnamed_addr constant [36 x i8] c"value %d in qdm2_get_vlc too large\0A\00", align 1

; Function Attrs: inlinehint nounwind willreturn memory(none) uwtable
define internal i32 @zero_extend(i32 noundef %0, i32 noundef %1) #7 {
  %3 = alloca i32, align 4
  %4 = alloca i32, align 4
  store i32 %0, ptr %3, align 4, !tbaa !36
  store i32 %1, ptr %4, align 4, !tbaa !36
  %5 = load i32, ptr %3, align 4, !tbaa !36
  %6 = load i32, ptr %4, align 4, !tbaa !36
  %7 = zext i32 %6 to i64
  %8 = sub i64 32, %7
  %9 = trunc i64 %8 to i32
  %10 = shl i32 %5, %9
  %11 = load i32, ptr %4, align 4, !tbaa !36
  %12 = zext i32 %11 to i64
  %13 = sub i64 32, %12
  %14 = trunc i64 %13 to i32
  %15 = lshr i32 %10, %14
  ret i32 %15
}

; Function Attrs: inlinehint nounwind uwtable
define internal i32 @get_bits(ptr noundef %0, i32 noundef %1) #11 {
  %3 = alloca ptr, align 8
  %4 = alloca i32, align 4
  %5 = alloca i32, align 4
  %6 = alloca i32, align 4
  %7 = alloca i32, align 4
  %8 = alloca i32, align 4
  store ptr %0, ptr %3, align 8, !tbaa !173
  store i32 %1, ptr %4, align 4, !tbaa !36
  call void @llvm.lifetime.start.p0(i64 4, ptr %5) #13
  call void @llvm.lifetime.start.p0(i64 4, ptr %6) #13
  %9 = load ptr, ptr %3, align 8, !tbaa !173
  %10 = getelementptr inbounds nuw %struct.GetBitContext, ptr %9, i32 0, i32 2
  %11 = load i32, ptr %10, align 8, !tbaa !180
  store i32 %11, ptr %6, align 4, !tbaa !36
  call void @llvm.lifetime.start.p0(i64 4, ptr %7) #13
  call void @llvm.lifetime.start.p0(i64 4, ptr %8) #13
  %12 = load ptr, ptr %3, align 8, !tbaa !173
  %13 = getelementptr inbounds nuw %struct.GetBitContext, ptr %12, i32 0, i32 4
  %14 = load i32, ptr %13, align 8, !tbaa !178
  store i32 %14, ptr %8, align 4, !tbaa !36
  %15 = load ptr, ptr %3, align 8, !tbaa !173
  %16 = getelementptr inbounds nuw %struct.GetBitContext, ptr %15, i32 0, i32 0
  %17 = load ptr, ptr %16, align 8, !tbaa !175
  %18 = load i32, ptr %6, align 4, !tbaa !36
  %19 = lshr i32 %18, 3
  %20 = zext i32 %19 to i64
  %21 = getelementptr inbounds nuw i8, ptr %17, i64 %20
  %22 = load i32, ptr %21, align 1, !tbaa !78
  %23 = load i32, ptr %6, align 4, !tbaa !36
  %24 = and i32 %23, 7
  %25 = lshr i32 %22, %24
  store i32 %25, ptr %7, align 4, !tbaa !36
  %26 = load i32, ptr %7, align 4, !tbaa !36
  %27 = load i32, ptr %4, align 4, !tbaa !36
  %28 = call i32 @zero_extend(i32 noundef %26, i32 noundef %27) #14
  store i32 %28, ptr %5, align 4, !tbaa !36
  %29 = load i32, ptr %8, align 4, !tbaa !36
  %30 = load i32, ptr %6, align 4, !tbaa !36
  %31 = load i32, ptr %4, align 4, !tbaa !36
  %32 = add i32 %30, %31
  %33 = icmp ugt i32 %29, %32
  br i1 %33, label %34, label %38

34:                                               ; preds = %2
  %35 = load i32, ptr %6, align 4, !tbaa !36
  %36 = load i32, ptr %4, align 4, !tbaa !36
  %37 = add i32 %35, %36
  br label %40

38:                                               ; preds = %2
  %39 = load i32, ptr %8, align 4, !tbaa !36
  br label %40

40:                                               ; preds = %38, %34
  %41 = phi i32 [ %37, %34 ], [ %39, %38 ]
  store i32 %41, ptr %6, align 4, !tbaa !36
  %42 = load i32, ptr %6, align 4, !tbaa !36
  %43 = load ptr, ptr %3, align 8, !tbaa !173
  %44 = getelementptr inbounds nuw %struct.GetBitContext, ptr %43, i32 0, i32 2
  store i32 %42, ptr %44, align 8, !tbaa !180
  %45 = load i32, ptr %5, align 4, !tbaa !36
  call void @llvm.lifetime.end.p0(i64 4, ptr %8) #13
  call void @llvm.lifetime.end.p0(i64 4, ptr %7) #13
  call void @llvm.lifetime.end.p0(i64 4, ptr %6) #13
  call void @llvm.lifetime.end.p0(i64 4, ptr %5) #13
  ret i32 %45
}

; Function Attrs: alwaysinline nounwind uwtable
define internal i32 @get_vlc2(ptr noundef %0, ptr noundef %1, i32 noundef %2, i32 noundef %3) #4 {
  %5 = alloca ptr, align 8
  %6 = alloca ptr, align 8
  %7 = alloca i32, align 4
  %8 = alloca i32, align 4
  %9 = alloca i32, align 4
  %10 = alloca i32, align 4
  %11 = alloca i32, align 4
  %12 = alloca i32, align 4
  %13 = alloca i32, align 4
  %14 = alloca i32, align 4
  %15 = alloca i32, align 4
  store ptr %0, ptr %5, align 8, !tbaa !173
  store ptr %1, ptr %6, align 8, !tbaa !184
  store i32 %2, ptr %7, align 4, !tbaa !36
  store i32 %3, ptr %8, align 4, !tbaa !36
  call void @llvm.lifetime.start.p0(i64 4, ptr %9) #13
  call void @llvm.lifetime.start.p0(i64 4, ptr %10) #13
  %16 = load ptr, ptr %5, align 8, !tbaa !173
  %17 = getelementptr inbounds nuw %struct.GetBitContext, ptr %16, i32 0, i32 2
  %18 = load i32, ptr %17, align 8, !tbaa !180
  store i32 %18, ptr %10, align 4, !tbaa !36
  call void @llvm.lifetime.start.p0(i64 4, ptr %11) #13
  call void @llvm.lifetime.start.p0(i64 4, ptr %12) #13
  %19 = load ptr, ptr %5, align 8, !tbaa !173
  %20 = getelementptr inbounds nuw %struct.GetBitContext, ptr %19, i32 0, i32 4
  %21 = load i32, ptr %20, align 8, !tbaa !178
  store i32 %21, ptr %12, align 4, !tbaa !36
  %22 = load ptr, ptr %5, align 8, !tbaa !173
  %23 = getelementptr inbounds nuw %struct.GetBitContext, ptr %22, i32 0, i32 0
  %24 = load ptr, ptr %23, align 8, !tbaa !175
  %25 = load i32, ptr %10, align 4, !tbaa !36
  %26 = lshr i32 %25, 3
  %27 = zext i32 %26 to i64
  %28 = getelementptr inbounds nuw i8, ptr %24, i64 %27
  %29 = load i32, ptr %28, align 1, !tbaa !78
  %30 = load i32, ptr %10, align 4, !tbaa !36
  %31 = and i32 %30, 7
  %32 = lshr i32 %29, %31
  store i32 %32, ptr %11, align 4, !tbaa !36
  br label %33

33:                                               ; preds = %4
  call void @llvm.lifetime.start.p0(i64 4, ptr %13) #13
  call void @llvm.lifetime.start.p0(i64 4, ptr %14) #13
  call void @llvm.lifetime.start.p0(i64 4, ptr %15) #13
  %34 = load i32, ptr %11, align 4, !tbaa !36
  %35 = load i32, ptr %7, align 4, !tbaa !36
  %36 = call i32 @zero_extend(i32 noundef %34, i32 noundef %35) #14
  store i32 %36, ptr %15, align 4, !tbaa !36
  %37 = load ptr, ptr %6, align 8, !tbaa !184
  %38 = load i32, ptr %15, align 4, !tbaa !36
  %39 = zext i32 %38 to i64
  %40 = getelementptr inbounds nuw %struct.VLCElem, ptr %37, i64 %39
  %41 = getelementptr inbounds nuw %struct.VLCElem, ptr %40, i32 0, i32 0
  %42 = getelementptr inbounds nuw %struct.anon, ptr %41, i32 0, i32 0
  %43 = load i16, ptr %42, align 2, !tbaa !78
  %44 = sext i16 %43 to i32
  store i32 %44, ptr %9, align 4, !tbaa !36
  %45 = load ptr, ptr %6, align 8, !tbaa !184
  %46 = load i32, ptr %15, align 4, !tbaa !36
  %47 = zext i32 %46 to i64
  %48 = getelementptr inbounds nuw %struct.VLCElem, ptr %45, i64 %47
  %49 = getelementptr inbounds nuw %struct.VLCElem, ptr %48, i32 0, i32 0
  %50 = getelementptr inbounds nuw %struct.anon, ptr %49, i32 0, i32 1
  %51 = load i16, ptr %50, align 2, !tbaa !78
  %52 = sext i16 %51 to i32
  store i32 %52, ptr %13, align 4, !tbaa !36
  %53 = load i32, ptr %8, align 4, !tbaa !36
  %54 = icmp sgt i32 %53, 1
  br i1 %54, label %55, label %160

55:                                               ; preds = %33
  %56 = load i32, ptr %13, align 4, !tbaa !36
  %57 = icmp slt i32 %56, 0
  br i1 %57, label %58, label %160

58:                                               ; preds = %55
  %59 = load i32, ptr %12, align 4, !tbaa !36
  %60 = load i32, ptr %10, align 4, !tbaa !36
  %61 = load i32, ptr %7, align 4, !tbaa !36
  %62 = add i32 %60, %61
  %63 = icmp ugt i32 %59, %62
  br i1 %63, label %64, label %68

64:                                               ; preds = %58
  %65 = load i32, ptr %10, align 4, !tbaa !36
  %66 = load i32, ptr %7, align 4, !tbaa !36
  %67 = add i32 %65, %66
  br label %70

68:                                               ; preds = %58
  %69 = load i32, ptr %12, align 4, !tbaa !36
  br label %70

70:                                               ; preds = %68, %64
  %71 = phi i32 [ %67, %64 ], [ %69, %68 ]
  store i32 %71, ptr %10, align 4, !tbaa !36
  %72 = load ptr, ptr %5, align 8, !tbaa !173
  %73 = getelementptr inbounds nuw %struct.GetBitContext, ptr %72, i32 0, i32 0
  %74 = load ptr, ptr %73, align 8, !tbaa !175
  %75 = load i32, ptr %10, align 4, !tbaa !36
  %76 = lshr i32 %75, 3
  %77 = zext i32 %76 to i64
  %78 = getelementptr inbounds nuw i8, ptr %74, i64 %77
  %79 = load i32, ptr %78, align 1, !tbaa !78
  %80 = load i32, ptr %10, align 4, !tbaa !36
  %81 = and i32 %80, 7
  %82 = lshr i32 %79, %81
  store i32 %82, ptr %11, align 4, !tbaa !36
  %83 = load i32, ptr %13, align 4, !tbaa !36
  %84 = sub nsw i32 0, %83
  store i32 %84, ptr %14, align 4, !tbaa !36
  %85 = load i32, ptr %11, align 4, !tbaa !36
  %86 = load i32, ptr %14, align 4, !tbaa !36
  %87 = call i32 @zero_extend(i32 noundef %85, i32 noundef %86) #14
  %88 = load i32, ptr %9, align 4, !tbaa !36
  %89 = add i32 %87, %88
  store i32 %89, ptr %15, align 4, !tbaa !36
  %90 = load ptr, ptr %6, align 8, !tbaa !184
  %91 = load i32, ptr %15, align 4, !tbaa !36
  %92 = zext i32 %91 to i64
  %93 = getelementptr inbounds nuw %struct.VLCElem, ptr %90, i64 %92
  %94 = getelementptr inbounds nuw %struct.VLCElem, ptr %93, i32 0, i32 0
  %95 = getelementptr inbounds nuw %struct.anon, ptr %94, i32 0, i32 0
  %96 = load i16, ptr %95, align 2, !tbaa !78
  %97 = sext i16 %96 to i32
  store i32 %97, ptr %9, align 4, !tbaa !36
  %98 = load ptr, ptr %6, align 8, !tbaa !184
  %99 = load i32, ptr %15, align 4, !tbaa !36
  %100 = zext i32 %99 to i64
  %101 = getelementptr inbounds nuw %struct.VLCElem, ptr %98, i64 %100
  %102 = getelementptr inbounds nuw %struct.VLCElem, ptr %101, i32 0, i32 0
  %103 = getelementptr inbounds nuw %struct.anon, ptr %102, i32 0, i32 1
  %104 = load i16, ptr %103, align 2, !tbaa !78
  %105 = sext i16 %104 to i32
  store i32 %105, ptr %13, align 4, !tbaa !36
  %106 = load i32, ptr %8, align 4, !tbaa !36
  %107 = icmp sgt i32 %106, 2
  br i1 %107, label %108, label %159

108:                                              ; preds = %70
  %109 = load i32, ptr %13, align 4, !tbaa !36
  %110 = icmp slt i32 %109, 0
  br i1 %110, label %111, label %159

111:                                              ; preds = %108
  %112 = load i32, ptr %12, align 4, !tbaa !36
  %113 = load i32, ptr %10, align 4, !tbaa !36
  %114 = load i32, ptr %14, align 4, !tbaa !36
  %115 = add i32 %113, %114
  %116 = icmp ugt i32 %112, %115
  br i1 %116, label %117, label %121

117:                                              ; preds = %111
  %118 = load i32, ptr %10, align 4, !tbaa !36
  %119 = load i32, ptr %14, align 4, !tbaa !36
  %120 = add i32 %118, %119
  br label %123

121:                                              ; preds = %111
  %122 = load i32, ptr %12, align 4, !tbaa !36
  br label %123

123:                                              ; preds = %121, %117
  %124 = phi i32 [ %120, %117 ], [ %122, %121 ]
  store i32 %124, ptr %10, align 4, !tbaa !36
  %125 = load ptr, ptr %5, align 8, !tbaa !173
  %126 = getelementptr inbounds nuw %struct.GetBitContext, ptr %125, i32 0, i32 0
  %127 = load ptr, ptr %126, align 8, !tbaa !175
  %128 = load i32, ptr %10, align 4, !tbaa !36
  %129 = lshr i32 %128, 3
  %130 = zext i32 %129 to i64
  %131 = getelementptr inbounds nuw i8, ptr %127, i64 %130
  %132 = load i32, ptr %131, align 1, !tbaa !78
  %133 = load i32, ptr %10, align 4, !tbaa !36
  %134 = and i32 %133, 7
  %135 = lshr i32 %132, %134
  store i32 %135, ptr %11, align 4, !tbaa !36
  %136 = load i32, ptr %13, align 4, !tbaa !36
  %137 = sub nsw i32 0, %136
  store i32 %137, ptr %14, align 4, !tbaa !36
  %138 = load i32, ptr %11, align 4, !tbaa !36
  %139 = load i32, ptr %14, align 4, !tbaa !36
  %140 = call i32 @zero_extend(i32 noundef %138, i32 noundef %139) #14
  %141 = load i32, ptr %9, align 4, !tbaa !36
  %142 = add i32 %140, %141
  store i32 %142, ptr %15, align 4, !tbaa !36
  %143 = load ptr, ptr %6, align 8, !tbaa !184
  %144 = load i32, ptr %15, align 4, !tbaa !36
  %145 = zext i32 %144 to i64
  %146 = getelementptr inbounds nuw %struct.VLCElem, ptr %143, i64 %145
  %147 = getelementptr inbounds nuw %struct.VLCElem, ptr %146, i32 0, i32 0
  %148 = getelementptr inbounds nuw %struct.anon, ptr %147, i32 0, i32 0
  %149 = load i16, ptr %148, align 2, !tbaa !78
  %150 = sext i16 %149 to i32
  store i32 %150, ptr %9, align 4, !tbaa !36
  %151 = load ptr, ptr %6, align 8, !tbaa !184
  %152 = load i32, ptr %15, align 4, !tbaa !36
  %153 = zext i32 %152 to i64
  %154 = getelementptr inbounds nuw %struct.VLCElem, ptr %151, i64 %153
  %155 = getelementptr inbounds nuw %struct.VLCElem, ptr %154, i32 0, i32 0
  %156 = getelementptr inbounds nuw %struct.anon, ptr %155, i32 0, i32 1
  %157 = load i16, ptr %156, align 2, !tbaa !78
  %158 = sext i16 %157 to i32
  store i32 %158, ptr %13, align 4, !tbaa !36
  br label %159

159:                                              ; preds = %123, %108, %70
  br label %160

160:                                              ; preds = %159, %55, %33
  br label %161

161:                                              ; preds = %160
  %162 = load i32, ptr %13, align 4, !tbaa !36
  %163 = load i32, ptr %11, align 4, !tbaa !36
  %164 = lshr i32 %163, %162
  store i32 %164, ptr %11, align 4, !tbaa !36
  %165 = load i32, ptr %12, align 4, !tbaa !36
  %166 = load i32, ptr %10, align 4, !tbaa !36
  %167 = load i32, ptr %13, align 4, !tbaa !36
  %168 = add i32 %166, %167
  %169 = icmp ugt i32 %165, %168
  br i1 %169, label %170, label %174

170:                                              ; preds = %161
  %171 = load i32, ptr %10, align 4, !tbaa !36
  %172 = load i32, ptr %13, align 4, !tbaa !36
  %173 = add i32 %171, %172
  br label %176

174:                                              ; preds = %161
  %175 = load i32, ptr %12, align 4, !tbaa !36
  br label %176

176:                                              ; preds = %174, %170
  %177 = phi i32 [ %173, %170 ], [ %175, %174 ]
  store i32 %177, ptr %10, align 4, !tbaa !36
  br label %178

178:                                              ; preds = %176
  br label %179

179:                                              ; preds = %178
  call void @llvm.lifetime.end.p0(i64 4, ptr %15) #13
  call void @llvm.lifetime.end.p0(i64 4, ptr %14) #13
  call void @llvm.lifetime.end.p0(i64 4, ptr %13) #13
  br label %180

180:                                              ; preds = %179
  br label %181

181:                                              ; preds = %180
  %182 = load i32, ptr %10, align 4, !tbaa !36
  %183 = load ptr, ptr %5, align 8, !tbaa !173
  %184 = getelementptr inbounds nuw %struct.GetBitContext, ptr %183, i32 0, i32 2
  store i32 %182, ptr %184, align 8, !tbaa !180
  %185 = load i32, ptr %9, align 4, !tbaa !36
  call void @llvm.lifetime.end.p0(i64 4, ptr %12) #13
  call void @llvm.lifetime.end.p0(i64 4, ptr %11) #13
  call void @llvm.lifetime.end.p0(i64 4, ptr %10) #13
  call void @llvm.lifetime.end.p0(i64 4, ptr %9) #13
  ret i32 %185
}

; Function Attrs: nounwind uwtable
define internal i32 @qdm2_get_vlc(ptr noundef %0, ptr noundef %1, i32 noundef %2, i32 noundef %3) #1 {
  %5 = alloca i32, align 4
  %6 = alloca ptr, align 8
  %7 = alloca ptr, align 8
  %8 = alloca i32, align 4
  %9 = alloca i32, align 4
  %10 = alloca i32, align 4
  %11 = alloca i32, align 4
  %12 = alloca i32, align 4
  store ptr %0, ptr %6, align 8, !tbaa !173
  store ptr %1, ptr %7, align 8, !tbaa !93
  store i32 %2, ptr %8, align 4, !tbaa !36
  store i32 %3, ptr %9, align 4, !tbaa !36
  call void @llvm.lifetime.start.p0(i64 4, ptr %10) #13
  %13 = load ptr, ptr %6, align 8, !tbaa !173
  %14 = load ptr, ptr %7, align 8, !tbaa !93
  %15 = getelementptr inbounds nuw %struct.VLC, ptr %14, i32 0, i32 1
  %16 = load ptr, ptr %15, align 8, !tbaa !95
  %17 = load ptr, ptr %7, align 8, !tbaa !93
  %18 = getelementptr inbounds nuw %struct.VLC, ptr %17, i32 0, i32 0
  %19 = load i32, ptr %18, align 8, !tbaa !182
  %20 = load i32, ptr %9, align 4, !tbaa !36
  %21 = call i1 @llvm.is.constant.i32(i32 %20)
  br i1 %21, label %22, label %24

22:                                               ; preds = %4
  %23 = load i32, ptr %9, align 4, !tbaa !36
  br label %25

24:                                               ; preds = %4
  br label %25

25:                                               ; preds = %24, %22
  %26 = phi i32 [ %23, %22 ], [ 2, %24 ]
  %27 = call i32 @get_vlc2(ptr noundef %13, ptr noundef %16, i32 noundef %19, i32 noundef %26)
  store i32 %27, ptr %10, align 4, !tbaa !36
  %28 = load i32, ptr %10, align 4, !tbaa !36
  %29 = icmp slt i32 %28, 0
  br i1 %29, label %30, label %36

30:                                               ; preds = %25
  %31 = load ptr, ptr %6, align 8, !tbaa !173
  %32 = load ptr, ptr %6, align 8, !tbaa !173
  %33 = call i32 @get_bits(ptr noundef %32, i32 noundef 3)
  %34 = add i32 %33, 1
  %35 = call i32 @get_bits(ptr noundef %31, i32 noundef %34)
  store i32 %35, ptr %10, align 4, !tbaa !36
  br label %36

36:                                               ; preds = %30, %25
  %37 = load i32, ptr %8, align 4, !tbaa !36
  %38 = icmp ne i32 %37, 0
  br i1 %38, label %39, label %64

39:                                               ; preds = %36
  call void @llvm.lifetime.start.p0(i64 4, ptr %11) #13
  %40 = load i32, ptr %10, align 4, !tbaa !36
  %41 = icmp sge i32 %40, 60
  br i1 %41, label %42, label %44

42:                                               ; preds = %39
  %43 = load i32, ptr %10, align 4, !tbaa !36
  call void (ptr, i32, ptr, ...) @av_log(ptr noundef null, i32 noundef 16, ptr noundef @.str.24, i32 noundef %43)
  store i32 0, ptr %5, align 4
  store i32 1, ptr %12, align 4
  br label %61

44:                                               ; preds = %39
  %45 = load i32, ptr %10, align 4, !tbaa !36
  %46 = sext i32 %45 to i64
  %47 = getelementptr inbounds [60 x i32], ptr @vlc_stage3_values, i64 0, i64 %46
  %48 = load i32, ptr %47, align 4, !tbaa !36
  store i32 %48, ptr %11, align 4, !tbaa !36
  %49 = load i32, ptr %10, align 4, !tbaa !36
  %50 = and i32 %49, -4
  %51 = icmp sgt i32 %50, 0
  br i1 %51, label %52, label %59

52:                                               ; preds = %44
  %53 = load ptr, ptr %6, align 8, !tbaa !173
  %54 = load i32, ptr %10, align 4, !tbaa !36
  %55 = ashr i32 %54, 2
  %56 = call i32 @get_bits(ptr noundef %53, i32 noundef %55)
  %57 = load i32, ptr %11, align 4, !tbaa !36
  %58 = add i32 %57, %56
  store i32 %58, ptr %11, align 4, !tbaa !36
  br label %59

59:                                               ; preds = %52, %44
  %60 = load i32, ptr %11, align 4, !tbaa !36
  store i32 %60, ptr %10, align 4, !tbaa !36
  store i32 0, ptr %12, align 4
  br label %61

61:                                               ; preds = %59, %42
  call void @llvm.lifetime.end.p0(i64 4, ptr %11) #13
  %62 = load i32, ptr %12, align 4
  switch i32 %62, label %66 [
    i32 0, label %63
  ]

63:                                               ; preds = %61
  br label %64

64:                                               ; preds = %63, %36
  %65 = load i32, ptr %10, align 4, !tbaa !36
  store i32 %65, ptr %5, align 4
  store i32 1, ptr %12, align 4
  br label %66

66:                                               ; preds = %64, %61
  call void @llvm.lifetime.end.p0(i64 4, ptr %10) #13
  %67 = load i32, ptr %5, align 4
  ret i32 %67
}