; Function Attrs: nounwind uwtable
define internal fastcc i32 @qdm2_get_vlc(ptr noundef nonnull captures(none) %0, i32 %.0.val, ptr readonly captures(none) %.8.val, i32 noundef range(i32 0, 2) %1, i32 noundef range(i32 1, 3) %2) unnamed_addr #1 {
  %4 = getelementptr inbounds nuw i8, ptr %0, i64 16
  %5 = load i32, ptr %4, align 8, !tbaa !117
  %6 = getelementptr inbounds nuw i8, ptr %0, i64 24
  %7 = load i32, ptr %6, align 8, !tbaa !115
  %8 = load ptr, ptr %0, align 8, !tbaa !112
  %9 = lshr i32 %5, 3
  %10 = zext nneg i32 %9 to i64
  %11 = getelementptr inbounds nuw i8, ptr %8, i64 %10
  %12 = load i32, ptr %11, align 1, !tbaa !30
  %13 = and i32 %5, 7
  %14 = lshr i32 %12, %13
  %15 = sub i32 32, %.0.val
  %16 = lshr i32 -1, %15
  %17 = and i32 %14, %16
  %18 = zext i32 %17 to i64
  %19 = getelementptr inbounds nuw %struct.VLCElem, ptr %.8.val, i64 %18
  %20 = load i16, ptr %19, align 2, !tbaa !30
  %21 = sext i16 %20 to i32
  %22 = getelementptr inbounds nuw i8, ptr %19, i64 2
  %23 = load i16, ptr %22, align 2, !tbaa !30
  %24 = sext i16 %23 to i32
  %25 = icmp slt i16 %23, 0
  br i1 %25, label %26, label %get_vlc2.exit

26:                                               ; preds = %3
  %27 = add i32 %5, %.0.val
  %28 = tail call i32 @llvm.umin.i32(i32 %7, i32 %27)
  %29 = lshr i32 %28, 3
  %30 = zext nneg i32 %29 to i64
  %31 = getelementptr inbounds nuw i8, ptr %8, i64 %30
  %32 = load i32, ptr %31, align 1, !tbaa !30
  %33 = and i32 %28, 7
  %34 = lshr i32 %32, %33
  %35 = add nsw i32 %24, 32
  %36 = lshr i32 -1, %35
  %37 = and i32 %34, %36
  %38 = add i32 %37, %21
  %39 = zext i32 %38 to i64
  %40 = getelementptr inbounds nuw %struct.VLCElem, ptr %.8.val, i64 %39
  %41 = load i16, ptr %40, align 2, !tbaa !30
  %42 = sext i16 %41 to i32
  %43 = getelementptr inbounds nuw i8, ptr %40, i64 2
  %44 = load i16, ptr %43, align 2, !tbaa !30
  %45 = sext i16 %44 to i32
  br label %get_vlc2.exit

get_vlc2.exit:                                    ; preds = %3, %26
  %.064.i = phi i32 [ %28, %26 ], [ %5, %3 ]
  %.062.i = phi i32 [ %42, %26 ], [ %21, %3 ]
  %.0.i = phi i32 [ %45, %26 ], [ %24, %3 ]
  %46 = add i32 %.0.i, %.064.i
  %47 = tail call i32 @llvm.umin.i32(i32 %7, i32 %46)
  store i32 %47, ptr %4, align 8, !tbaa !117
  %48 = icmp slt i32 %.062.i, 0
  br i1 %48, label %49, label %71

49:                                               ; preds = %get_vlc2.exit
  %50 = lshr i32 %47, 3
  %51 = zext nneg i32 %50 to i64
  %52 = getelementptr inbounds nuw i8, ptr %8, i64 %51
  %53 = load i32, ptr %52, align 1, !tbaa !30
  %54 = and i32 %47, 7
  %55 = lshr i32 %53, %54
  %56 = and i32 %55, 7
  %57 = add i32 %47, 3
  %58 = tail call i32 @llvm.umin.i32(i32 %7, i32 %57)
  store i32 %58, ptr %4, align 8, !tbaa !117
  %59 = lshr i32 %58, 3
  %60 = zext nneg i32 %59 to i64
  %61 = getelementptr inbounds nuw i8, ptr %8, i64 %60
  %62 = load i32, ptr %61, align 1, !tbaa !30
  %63 = and i32 %58, 7
  %64 = lshr i32 %62, %63
  %65 = xor i32 %56, 31
  %66 = lshr i32 -1, %65
  %67 = and i32 %66, %64
  %68 = add i32 %58, 1
  %69 = add i32 %68, %56
  %70 = tail call i32 @llvm.umin.i32(i32 %7, i32 %69)
  store i32 %70, ptr %4, align 8, !tbaa !117
  br label %71

71:                                               ; preds = %49, %get_vlc2.exit
  %72 = phi i32 [ %70, %49 ], [ %47, %get_vlc2.exit ]
  %.020 = phi i32 [ %67, %49 ], [ %.062.i, %get_vlc2.exit ]
  %.not = icmp eq i32 %1, 0
  br i1 %.not, label %95, label %73

73:                                               ; preds = %71
  %74 = icmp samesign ult i32 %.020, 60
  br i1 %74, label %76, label %75

75:                                               ; preds = %73
  tail call void (ptr, i32, ptr, ...) @av_log(ptr noundef null, i32 noundef 16, ptr noundef nonnull @.str.24, i32 noundef %.020) #10
  br label %95

76:                                               ; preds = %73
  %77 = zext nneg i32 %.020 to i64
  %78 = getelementptr inbounds nuw [60 x i32], ptr @vlc_stage3_values, i64 0, i64 %77
  %79 = load i32, ptr %78, align 4, !tbaa !75
  %80 = icmp samesign ugt i32 %.020, 3
  br i1 %80, label %81, label %95

81:                                               ; preds = %76
  %82 = lshr i32 %.020, 2
  %83 = lshr i32 %72, 3
  %84 = zext nneg i32 %83 to i64
  %85 = getelementptr inbounds nuw i8, ptr %8, i64 %84
  %86 = load i32, ptr %85, align 1, !tbaa !30
  %87 = and i32 %72, 7
  %88 = lshr i32 %86, %87
  %89 = sub nuw nsw i32 32, %82
  %90 = lshr i32 -1, %89
  %91 = and i32 %88, %90
  %92 = add i32 %72, %82
  %93 = tail call i32 @llvm.umin.i32(i32 %7, i32 %92)
  store i32 %93, ptr %4, align 8, !tbaa !117
  %94 = add i32 %91, %79
  br label %95

95:                                               ; preds = %75, %81, %76, %71
  %.122 = phi i32 [ %.020, %71 ], [ 0, %75 ], [ %94, %81 ], [ %79, %76 ]
  ret i32 %.122
}